; Function Attrs: mustprogress uwtable
define internal void @_ZN32pxrInternal_v0_24__pxrReserved__12_GLOBAL__N_118_PortalsDataSource8GetValueEf(ptr dead_on_unwind noalias writable sret(%"class.pxrInternal_v0_24__pxrReserved__::VtValue") align 8 %0, ptr noundef nonnull align 8 dereferenceable(40) %1, float noundef %2) unnamed_addr #0 align 2 personality ptr @__gxx_personality_v0 {
  %4 = alloca %"class.std::vector.28", align 8
  %5 = load ptr, ptr %1, align 8
  %6 = getelementptr inbounds i8, ptr %5, i64 32
  %7 = load ptr, ptr %6, align 8
  call void %7(ptr dead_on_unwind nonnull writable sret(%"class.std::vector.28") align 8 %4, ptr noundef nonnull align 8 dereferenceable(40) %1, float noundef %2)
  %8 = getelementptr inbounds nuw i8, ptr %0, i64 8
  store ptr @_ZZN32pxrInternal_v0_24__pxrReserved__7VtValue11GetTypeInfoISt6vectorINS_7SdfPathESaIS3_EEEENS_16TfPointerAndBitsIKNS0_9_TypeInfoEEEvE2ti, ptr %8, align 8
  invoke void @_ZN32pxrInternal_v0_24__pxrReserved__7VtValue15_RemoteTypeInfoISt6vectorINS_7SdfPathESaIS3_EEE10_PlaceCopyEPNS_19TfDelegatedCountPtrINS0_8_CountedIS5_EEEERKS5_(ptr noundef nonnull %0, ptr noundef nonnull align 8 dereferenceable(24) %4)
          to label %_ZN32pxrInternal_v0_24__pxrReserved__7VtValueC2ISt6vectorINS_7SdfPathESaIS3_EEEERKT_.exit unwind label %38

_ZN32pxrInternal_v0_24__pxrReserved__7VtValueC2ISt6vectorINS_7SdfPathESaIS3_EEEERKT_.exit: ; preds = %3
  %9 = load ptr, ptr %4, align 8
  %10 = getelementptr inbounds nuw i8, ptr %4, i64 8
  %11 = load ptr, ptr %10, align 8
  %.not4.i.i.i.i = icmp eq ptr %9, %11
  br i1 %.not4.i.i.i.i, label %_ZSt8_DestroyIPN32pxrInternal_v0_24__pxrReserved__7SdfPathES1_EvT_S3_RSaIT0_E.exit.i, label %.lr.ph.i.i.i.i

.lr.ph.i.i.i.i:                                   ; preds = %_ZN32pxrInternal_v0_24__pxrReserved__7VtValueC2ISt6vectorINS_7SdfPathESaIS3_EEEERKT_.exit, %_ZSt8_DestroyIN32pxrInternal_v0_24__pxrReserved__7SdfPathEEvPT_.exit.i.i.i.i
  %.05.i.i.i.i = phi ptr [ %30, %_ZSt8_DestroyIN32pxrInternal_v0_24__pxrReserved__7SdfPathEEvPT_.exit.i.i.i.i ], [ %9, %_ZN32pxrInternal_v0_24__pxrReserved__7VtValueC2ISt6vectorINS_7SdfPathESaIS3_EEEERKT_.exit ]
  %12 = load i32, ptr %.05.i.i.i.i, align 4
  %.not.i.i.i.i.i.i.i = icmp eq i32 %12, 0
  br i1 %.not.i.i.i.i.i.i.i, label %_ZSt8_DestroyIN32pxrInternal_v0_24__pxrReserved__7SdfPathEEvPT_.exit.i.i.i.i, label %13

13:                                               ; preds = %.lr.ph.i.i.i.i
  %14 = and i32 %12, 255
  %15 = lshr i32 %12, 8
  %16 = zext nneg i32 %14 to i64
  %17 = getelementptr inbounds [257 x ptr], ptr @_ZN32pxrInternal_v0_24__pxrReserved__8Sdf_PoolINS_15Sdf_PathPrimTagELj24ELj8ELj16384EE13_regionStartsE, i64 0, i64 %16
  %18 = load ptr, ptr %17, align 8
  %19 = mul nuw nsw i32 %15, 24
  %20 = zext nneg i32 %19 to i64
  %21 = getelementptr inbounds i8, ptr %18, i64 %20
  %22 = getelementptr inbounds nuw i8, ptr %21, i64 8
  %23 = atomicrmw sub ptr %22, i32 1 seq_cst, align 4
  %24 = and i32 %23, 2147483647
  %25 = icmp eq i32 %24, 1
  br i1 %25, label %26, label %_ZSt8_DestroyIN32pxrInternal_v0_24__pxrReserved__7SdfPathEEvPT_.exit.i.i.i.i

26:                                               ; preds = %13
  invoke void @_ZNK32pxrInternal_v0_24__pxrReserved__12Sdf_PathNode8_DestroyEv(ptr noundef nonnull align 8 dereferenceable(16) %21)
          to label %_ZSt8_DestroyIN32pxrInternal_v0_24__pxrReserved__7SdfPathEEvPT_.exit.i.i.i.i unwind label %27

27:                                               ; preds = %26
  %28 = landingpad { ptr, i32 }
          catch ptr null
  %29 = extractvalue { ptr, i32 } %28, 0
  call void @__clang_call_terminate(ptr %29) #24
  unreachable

_ZSt8_DestroyIN32pxrInternal_v0_24__pxrReserved__7SdfPathEEvPT_.exit.i.i.i.i: ; preds = %26, %13, %.lr.ph.i.i.i.i
  %30 = getelementptr inbounds i8, ptr %.05.i.i.i.i, i64 8
  %.not.i.i.i.i = icmp eq ptr %30, %11
  br i1 %.not.i.i.i.i, label %_ZSt8_DestroyIPN32pxrInternal_v0_24__pxrReserved__7SdfPathES1_EvT_S3_RSaIT0_E.exitthread-pre-split.i, label %.lr.ph.i.i.i.i, !llvm.loop !24

_ZSt8_DestroyIPN32pxrInternal_v0_24__pxrReserved__7SdfPathES1_EvT_S3_RSaIT0_E.exitthread-pre-split.i: ; preds = %_ZSt8_DestroyIN32pxrInternal_v0_24__pxrReserved__7SdfPathEEvPT_.exit.i.i.i.i
  %.pr.i = load ptr, ptr %4, align 8
  br label %_ZSt8_DestroyIPN32pxrInternal_v0_24__pxrReserved__7SdfPathES1_EvT_S3_RSaIT0_E.exit.i

_ZSt8_DestroyIPN32pxrInternal_v0_24__pxrReserved__7SdfPathES1_EvT_S3_RSaIT0_E.exit.i: ; preds = %_ZSt8_DestroyIPN32pxrInternal_v0_24__pxrReserved__7SdfPathES1_EvT_S3_RSaIT0_E.exitthread-pre-split.i, %_ZN32pxrInternal_v0_24__pxrReserved__7VtValueC2ISt6vectorINS_7SdfPathESaIS3_EEEERKT_.exit
  %31 = phi ptr [ %.pr.i, %_ZSt8_DestroyIPN32pxrInternal_v0_24__pxrReserved__7SdfPathES1_EvT_S3_RSaIT0_E.exitthread-pre-split.i ], [ %9, %_ZN32pxrInternal_v0_24__pxrReserved__7VtValueC2ISt6vectorINS_7SdfPathESaIS3_EEEERKT_.exit ]
  %.not.i.i.i = icmp eq ptr %31, null
  br i1 %.not.i.i.i, label %_ZNSt6vectorIN32pxrInternal_v0_24__pxrReserved__7SdfPathESaIS1_EED2Ev.exit, label %32

32:                                               ; preds = %_ZSt8_DestroyIPN32pxrInternal_v0_24__pxrReserved__7SdfPathES1_EvT_S3_RSaIT0_E.exit.i
  %33 = getelementptr inbounds nuw i8, ptr %4, i64 16
  %34 = load ptr, ptr %33, align 8
  %35 = ptrtoint ptr %34 to i64
  %36 = ptrtoint ptr %31 to i64
  %37 = sub i64 %35, %36
  call void @_ZdlPvm(ptr noundef nonnull %31, i64 noundef %37) #22
  br label %_ZNSt6vectorIN32pxrInternal_v0_24__pxrReserved__7SdfPathESaIS1_EED2Ev.exit

_ZNSt6vectorIN32pxrInternal_v0_24__pxrReserved__7SdfPathESaIS1_EED2Ev.exit: ; preds = %_ZSt8_DestroyIPN32pxrInternal_v0_24__pxrReserved__7SdfPathES1_EvT_S3_RSaIT0_E.exit.i, %32
  ret void

38:                                               ; preds = %3
  %39 = landingpad { ptr, i32 }
          cleanup
  call void @_ZNSt6vectorIN32pxrInternal_v0_24__pxrReserved__7SdfPathESaIS1_EED2Ev(ptr noundef nonnull align 8 dereferenceable(24) %4) #21
  resume { ptr, i32 } %39
}